target datalayout = "e-m:e-p270:32:32-p271:32:32-p272:64:64-i64:64-i128:128-f80:128-n8:16:32:64-S128"
target triple = "x86_64-unknown-linux-gnu"

%"struct.euf::dependent_eq" = type { ptr, ptr, %class.obj_ref, ptr }
%class.obj_ref = type { ptr, ptr }
%"struct.__gnu_cxx::__ops::_Iter_comp_iter" = type { %class.anon.46 }
%class.anon.46 = type { i8 }

; Function Attrs: mustprogress nounwind uwtable
define linkonce_odr noundef nonnull align 8 dereferenceable(8) ptr @_ZSt3minIlERKT_S2_S2_(ptr noundef nonnull align 8 dereferenceable(8) %__a, ptr noundef nonnull align 8 dereferenceable(8) %__b) #5 comdat {
entry:
  %retval = alloca ptr, align 8
  %__a.addr = alloca ptr, align 8
  %__b.addr = alloca ptr, align 8
  store ptr %__a, ptr %__a.addr, align 8
  store ptr %__b, ptr %__b.addr, align 8
  %0 = load ptr, ptr %__b.addr, align 8
  %1 = load i64, ptr %0, align 8
  %2 = load ptr, ptr %__a.addr, align 8
  %3 = load i64, ptr %2, align 8
  %cmp = icmp slt i64 %1, %3
  br i1 %cmp, label %if.then, label %if.end

if.then:                                          ; preds = %entry
  %4 = load ptr, ptr %__b.addr, align 8
  store ptr %4, ptr %retval, align 8
  br label %return

if.end:                                           ; preds = %entry
  %5 = load ptr, ptr %__a.addr, align 8
  store ptr %5, ptr %retval, align 8
  br label %return

return:                                           ; preds = %if.end, %if.then
  %6 = load ptr, ptr %retval, align 8
  ret ptr %6
}

; Function Attrs: mustprogress uwtable
define internal void @"_ZSt17__merge_sort_loopIPN3euf12dependent_eqES2_lN9__gnu_cxx5__ops15_Iter_comp_iterIZNS0_17solve_context_eqs25collect_nested_equalitiesER6vectorIS1_Lb1EjEE3$_0EEEvT_SC_T0_T1_T2_"(ptr noundef %__first, ptr noundef %__last, ptr noundef %__result, i64 noundef %__step_size) #4 {
entry:
  %__comp = alloca %"struct.__gnu_cxx::__ops::_Iter_comp_iter", align 1
  %__first.addr = alloca ptr, align 8
  %__last.addr = alloca ptr, align 8
  %__result.addr = alloca ptr, align 8
  %__step_size.addr = alloca i64, align 8
  %__two_step = alloca i64, align 8
  %agg.tmp = alloca %"struct.__gnu_cxx::__ops::_Iter_comp_iter", align 1
  %ref.tmp = alloca i64, align 8
  %agg.tmp11 = alloca %"struct.__gnu_cxx::__ops::_Iter_comp_iter", align 1
  store ptr %__first, ptr %__first.addr, align 8
  store ptr %__last, ptr %__last.addr, align 8
  store ptr %__result, ptr %__result.addr, align 8
  store i64 %__step_size, ptr %__step_size.addr, align 8
  %0 = load i64, ptr %__step_size.addr, align 8
  %mul = mul nsw i64 2, %0
  store i64 %mul, ptr %__two_step, align 8
  br label %while.cond

while.cond:                                       ; preds = %while.body, %entry
  %1 = load ptr, ptr %__last.addr, align 8
  %2 = load ptr, ptr %__first.addr, align 8
  %sub.ptr.lhs.cast = ptrtoint ptr %1 to i64
  %sub.ptr.rhs.cast = ptrtoint ptr %2 to i64
  %sub.ptr.sub = sub i64 %sub.ptr.lhs.cast, %sub.ptr.rhs.cast
  %sub.ptr.div = sdiv exact i64 %sub.ptr.sub, 40
  %3 = load i64, ptr %__two_step, align 8
  %cmp = icmp sge i64 %sub.ptr.div, %3
  br i1 %cmp, label %while.body, label %while.end

while.body:                                       ; preds = %while.cond
  %4 = load ptr, ptr %__first.addr, align 8
  %5 = load ptr, ptr %__first.addr, align 8
  %6 = load i64, ptr %__step_size.addr, align 8
  %add.ptr = getelementptr inbounds %"struct.euf::dependent_eq", ptr %5, i64 %6
  %7 = load ptr, ptr %__first.addr, align 8
  %8 = load i64, ptr %__step_size.addr, align 8
  %add.ptr1 = getelementptr inbounds %"struct.euf::dependent_eq", ptr %7, i64 %8
  %9 = load ptr, ptr %__first.addr, align 8
  %10 = load i64, ptr %__two_step, align 8
  %add.ptr2 = getelementptr inbounds %"struct.euf::dependent_eq", ptr %9, i64 %10
  %11 = load ptr, ptr %__result.addr, align 8
  call void @llvm.memcpy.p0.p0.i64(ptr align 1 %agg.tmp, ptr align 1 %__comp, i64 1, i1 false)
  %call = call noundef ptr @"_ZSt12__move_mergeIPN3euf12dependent_eqES2_N9__gnu_cxx5__ops15_Iter_comp_iterIZNS0_17solve_context_eqs25collect_nested_equalitiesER6vectorIS1_Lb1EjEE3$_0EEET0_T_SD_SD_SD_SC_T1_"(ptr noundef %4, ptr noundef %add.ptr, ptr noundef %add.ptr1, ptr noundef %add.ptr2, ptr noundef %11)
  store ptr %call, ptr %__result.addr, align 8
  %12 = load i64, ptr %__two_step, align 8
  %13 = load ptr, ptr %__first.addr, align 8
  %add.ptr3 = getelementptr inbounds %"struct.euf::dependent_eq", ptr %13, i64 %12
  store ptr %add.ptr3, ptr %__first.addr, align 8
  br label %while.cond, !llvm.loop !34

while.end:                                        ; preds = %while.cond
  %14 = load ptr, ptr %__last.addr, align 8
  %15 = load ptr, ptr %__first.addr, align 8
  %sub.ptr.lhs.cast4 = ptrtoint ptr %14 to i64
  %sub.ptr.rhs.cast5 = ptrtoint ptr %15 to i64
  %sub.ptr.sub6 = sub i64 %sub.ptr.lhs.cast4, %sub.ptr.rhs.cast5
  %sub.ptr.div7 = sdiv exact i64 %sub.ptr.sub6, 40
  store i64 %sub.ptr.div7, ptr %ref.tmp, align 8
  %call8 = call noundef nonnull align 8 dereferenceable(8) ptr @_ZSt3minIlERKT_S2_S2_(ptr noundef nonnull align 8 dereferenceable(8) %ref.tmp, ptr noundef nonnull align 8 dereferenceable(8) %__step_size.addr)
  %16 = load i64, ptr %call8, align 8
  store i64 %16, ptr %__step_size.addr, align 8
  %17 = load ptr, ptr %__first.addr, align 8
  %18 = load ptr, ptr %__first.addr, align 8
  %19 = load i64, ptr %__step_size.addr, align 8
  %add.ptr9 = getelementptr inbounds %"struct.euf::dependent_eq", ptr %18, i64 %19
  %20 = load ptr, ptr %__first.addr, align 8
  %21 = load i64, ptr %__step_size.addr, align 8
  %add.ptr10 = getelementptr inbounds %"struct.euf::dependent_eq", ptr %20, i64 %21
  %22 = load ptr, ptr %__last.addr, align 8
  %23 = load ptr, ptr %__result.addr, align 8
  call void @llvm.memcpy.p0.p0.i64(ptr align 1 %agg.tmp11, ptr align 1 %__comp, i64 1, i1 false)
  %call12 = call noundef ptr @"_ZSt12__move_mergeIPN3euf12dependent_eqES2_N9__gnu_cxx5__ops15_Iter_comp_iterIZNS0_17solve_context_eqs25collect_nested_equalitiesER6vectorIS1_Lb1EjEE3$_0EEET0_T_SD_SD_SD_SC_T1_"(ptr noundef %17, ptr noundef %add.ptr9, ptr noundef %add.ptr10, ptr noundef %22, ptr noundef %23)
  ret void
}

; Function Attrs: mustprogress uwtable
define internal void @"_ZSt22__chunk_insertion_sortIPN3euf12dependent_eqElN9__gnu_cxx5__ops15_Iter_comp_iterIZNS0_17solve_context_eqs25collect_nested_equalitiesER6vectorIS1_Lb1EjEE3$_0EEEvT_SC_T0_T1_"(ptr noundef %__first, ptr noundef %__last, i64 noundef %__chunk_size) #4 {
entry:
  %__comp = alloca %"struct.__gnu_cxx::__ops::_Iter_comp_iter", align 1
  %__first.addr = alloca ptr, align 8
  %__last.addr = alloca ptr, align 8
  %__chunk_size.addr = alloca i64, align 8
  %agg.tmp = alloca %"struct.__gnu_cxx::__ops::_Iter_comp_iter", align 1
  %agg.tmp2 = alloca %"struct.__gnu_cxx::__ops::_Iter_comp_iter", align 1
  store ptr %__first, ptr %__first.addr, align 8
  store ptr %__last, ptr %__last.addr, align 8
  store i64 %__chunk_size, ptr %__chunk_size.addr, align 8
  br label %while.cond

while.cond:                                       ; preds = %while.body, %entry
  %0 = load ptr, ptr %__last.addr, align 8
  %1 = load ptr, ptr %__first.addr, align 8
  %sub.ptr.lhs.cast = ptrtoint ptr %0 to i64
  %sub.ptr.rhs.cast = ptrtoint ptr %1 to i64
  %sub.ptr.sub = sub i64 %sub.ptr.lhs.cast, %sub.ptr.rhs.cast
  %sub.ptr.div = sdiv exact i64 %sub.ptr.sub, 40
  %2 = load i64, ptr %__chunk_size.addr, align 8
  %cmp = icmp sge i64 %sub.ptr.div, %2
  br i1 %cmp, label %while.body, label %while.end

while.body:                                       ; preds = %while.cond
  %3 = load ptr, ptr %__first.addr, align 8
  %4 = load ptr, ptr %__first.addr, align 8
  %5 = load i64, ptr %__chunk_size.addr, align 8
  %add.ptr = getelementptr inbounds %"struct.euf::dependent_eq", ptr %4, i64 %5
  call void @llvm.memcpy.p0.p0.i64(ptr align 1 %agg.tmp, ptr align 1 %__comp, i64 1, i1 false)
  call void @"_ZSt16__insertion_sortIPN3euf12dependent_eqEN9__gnu_cxx5__ops15_Iter_comp_iterIZNS0_17solve_context_eqs25collect_nested_equalitiesER6vectorIS1_Lb1EjEE3$_0EEEvT_SC_T0_"(ptr noundef %3, ptr noundef %add.ptr)
  %6 = load i64, ptr %__chunk_size.addr, align 8
  %7 = load ptr, ptr %__first.addr, align 8
  %add.ptr1 = getelementptr inbounds %"struct.euf::dependent_eq", ptr %7, i64 %6
  store ptr %add.ptr1, ptr %__first.addr, align 8
  br label %while.cond, !llvm.loop !33

while.end:                                        ; preds = %while.cond
  %8 = load ptr, ptr %__first.addr, align 8
  %9 = load ptr, ptr %__last.addr, align 8
  call void @llvm.memcpy.p0.p0.i64(ptr align 1 %agg.tmp2, ptr align 1 %__comp, i64 1, i1 false)
  call void @"_ZSt16__insertion_sortIPN3euf12dependent_eqEN9__gnu_cxx5__ops15_Iter_comp_iterIZNS0_17solve_context_eqs25collect_nested_equalitiesER6vectorIS1_Lb1EjEE3$_0EEEvT_SC_T0_"(ptr noundef %8, ptr noundef %9)
  ret void
}

; Function Attrs: mustprogress uwtable
define internal void @"_ZSt24__merge_sort_with_bufferIPN3euf12dependent_eqES2_N9__gnu_cxx5__ops15_Iter_comp_iterIZNS0_17solve_context_eqs25collect_nested_equalitiesER6vectorIS1_Lb1EjEE3$_0EEEvT_SC_T0_T1_"(ptr noundef %__first, ptr noundef %__last, ptr noundef %__buffer) #4 {
entry:
  %__comp = alloca %"struct.__gnu_cxx::__ops::_Iter_comp_iter", align 1
  %__first.addr = alloca ptr, align 8
  %__last.addr = alloca ptr, align 8
  %__buffer.addr = alloca ptr, align 8
  %__len = alloca i64, align 8
  %__buffer_last = alloca ptr, align 8
  %__step_size = alloca i64, align 8
  %agg.tmp = alloca %"struct.__gnu_cxx::__ops::_Iter_comp_iter", align 1
  %agg.tmp1 = alloca %"struct.__gnu_cxx::__ops::_Iter_comp_iter", align 1
  %agg.tmp2 = alloca %"struct.__gnu_cxx::__ops::_Iter_comp_iter", align 1
  store ptr %__first, ptr %__first.addr, align 8
  store ptr %__last, ptr %__last.addr, align 8
  store ptr %__buffer, ptr %__buffer.addr, align 8
  %0 = load ptr, ptr %__last.addr, align 8
  %1 = load ptr, ptr %__first.addr, align 8
  %sub.ptr.lhs.cast = ptrtoint ptr %0 to i64
  %sub.ptr.rhs.cast = ptrtoint ptr %1 to i64
  %sub.ptr.sub = sub i64 %sub.ptr.lhs.cast, %sub.ptr.rhs.cast
  %sub.ptr.div = sdiv exact i64 %sub.ptr.sub, 40
  store i64 %sub.ptr.div, ptr %__len, align 8
  %2 = load ptr, ptr %__buffer.addr, align 8
  %3 = load i64, ptr %__len, align 8
  %add.ptr = getelementptr inbounds %"struct.euf::dependent_eq", ptr %2, i64 %3
  store ptr %add.ptr, ptr %__buffer_last, align 8
  store i64 7, ptr %__step_size, align 8
  %4 = load ptr, ptr %__first.addr, align 8
  %5 = load ptr, ptr %__last.addr, align 8
  %6 = load i64, ptr %__step_size, align 8
  call void @llvm.memcpy.p0.p0.i64(ptr align 1 %agg.tmp, ptr align 1 %__comp, i64 1, i1 false)
  call void @"_ZSt22__chunk_insertion_sortIPN3euf12dependent_eqElN9__gnu_cxx5__ops15_Iter_comp_iterIZNS0_17solve_context_eqs25collect_nested_equalitiesER6vectorIS1_Lb1EjEE3$_0EEEvT_SC_T0_T1_"(ptr noundef %4, ptr noundef %5, i64 noundef %6)
  br label %while.cond

while.cond:                                       ; preds = %while.body, %entry
  %7 = load i64, ptr %__step_size, align 8
  %8 = load i64, ptr %__len, align 8
  %cmp = icmp slt i64 %7, %8
  br i1 %cmp, label %while.body, label %while.end

while.body:                                       ; preds = %while.cond
  %9 = load ptr, ptr %__first.addr, align 8
  %10 = load ptr, ptr %__last.addr, align 8
  %11 = load ptr, ptr %__buffer.addr, align 8
  %12 = load i64, ptr %__step_size, align 8
  call void @llvm.memcpy.p0.p0.i64(ptr align 1 %agg.tmp1, ptr align 1 %__comp, i64 1, i1 false)
  call void @"_ZSt17__merge_sort_loopIPN3euf12dependent_eqES2_lN9__gnu_cxx5__ops15_Iter_comp_iterIZNS0_17solve_context_eqs25collect_nested_equalitiesER6vectorIS1_Lb1EjEE3$_0EEEvT_SC_T0_T1_T2_"(ptr noundef %9, ptr noundef %10, ptr noundef %11, i64 noundef %12)
  %13 = load i64, ptr %__step_size, align 8
  %mul = mul nsw i64 %13, 2
  store i64 %mul, ptr %__step_size, align 8
  %14 = load ptr, ptr %__buffer.addr, align 8
  %15 = load ptr, ptr %__buffer_last, align 8
  %16 = load ptr, ptr %__first.addr, align 8
  %17 = load i64, ptr %__step_size, align 8
  call void @llvm.memcpy.p0.p0.i64(ptr align 1 %agg.tmp2, ptr align 1 %__comp, i64 1, i1 false)
  call void @"_ZSt17__merge_sort_loopIPN3euf12dependent_eqES2_lN9__gnu_cxx5__ops15_Iter_comp_iterIZNS0_17solve_context_eqs25collect_nested_equalitiesER6vectorIS1_Lb1EjEE3$_0EEEvT_SC_T0_T1_T2_"(ptr noundef %14, ptr noundef %15, ptr noundef %16, i64 noundef %17)
  %18 = load i64, ptr %__step_size, align 8
  %mul3 = mul nsw i64 %18, 2
  store i64 %mul3, ptr %__step_size, align 8
  br label %while.cond, !llvm.loop !32

while.end:                                        ; preds = %while.cond
  ret void
}