; Function Attrs: mustprogress nounwind uwtable
define internal fastcc void @"_ZSt24__merge_sort_with_bufferIPN3euf12dependent_eqES2_N9__gnu_cxx5__ops15_Iter_comp_iterIZNS0_17solve_context_eqs25collect_nested_equalitiesER6vectorIS1_Lb1EjEE3$_0EEEvT_SC_T0_T1_"(ptr noundef %__first, ptr noundef %__last, ptr noundef %__buffer) unnamed_addr #4 {
entry:
  %sub.ptr.lhs.cast = ptrtoint ptr %__last to i64
  %sub.ptr.rhs.cast = ptrtoint ptr %__first to i64
  %sub.ptr.sub = sub i64 %sub.ptr.lhs.cast, %sub.ptr.rhs.cast
  %sub.ptr.div = sdiv exact i64 %sub.ptr.sub, 40
  %add.ptr = getelementptr inbounds i8, ptr %__buffer, i64 %sub.ptr.sub
  %cmp11.i = icmp sgt i64 %sub.ptr.sub, 240
  br i1 %cmp11.i, label %while.body.i, label %"_ZSt22__chunk_insertion_sortIPN3euf12dependent_eqElN9__gnu_cxx5__ops15_Iter_comp_iterIZNS0_17solve_context_eqs25collect_nested_equalitiesER6vectorIS1_Lb1EjEE3$_0EEEvT_SC_T0_T1_.exit.thread"

"_ZSt22__chunk_insertion_sortIPN3euf12dependent_eqElN9__gnu_cxx5__ops15_Iter_comp_iterIZNS0_17solve_context_eqs25collect_nested_equalitiesER6vectorIS1_Lb1EjEE3$_0EEEvT_SC_T0_T1_.exit.thread": ; preds = %entry
  tail call fastcc void @"_ZSt16__insertion_sortIPN3euf12dependent_eqEN9__gnu_cxx5__ops15_Iter_comp_iterIZNS0_17solve_context_eqs25collect_nested_equalitiesER6vectorIS1_Lb1EjEE3$_0EEEvT_SC_T0_"(ptr noundef %__first, ptr noundef %__last)
  br label %while.end

while.body.i:                                     ; preds = %entry, %while.body.i
  %__first.addr.012.i = phi ptr [ %add.ptr.i, %while.body.i ], [ %__first, %entry ]
  %add.ptr.i = getelementptr inbounds i8, ptr %__first.addr.012.i, i64 280
  tail call fastcc void @"_ZSt16__insertion_sortIPN3euf12dependent_eqEN9__gnu_cxx5__ops15_Iter_comp_iterIZNS0_17solve_context_eqs25collect_nested_equalitiesER6vectorIS1_Lb1EjEE3$_0EEEvT_SC_T0_"(ptr noundef %__first.addr.012.i, ptr noundef nonnull %add.ptr.i)
  %sub.ptr.rhs.cast.i = ptrtoint ptr %add.ptr.i to i64
  %sub.ptr.sub.i = sub i64 %sub.ptr.lhs.cast, %sub.ptr.rhs.cast.i
  %cmp.i = icmp sgt i64 %sub.ptr.sub.i, 240
  br i1 %cmp.i, label %while.body.i, label %"_ZSt22__chunk_insertion_sortIPN3euf12dependent_eqElN9__gnu_cxx5__ops15_Iter_comp_iterIZNS0_17solve_context_eqs25collect_nested_equalitiesER6vectorIS1_Lb1EjEE3$_0EEEvT_SC_T0_T1_.exit", !llvm.loop !39

"_ZSt22__chunk_insertion_sortIPN3euf12dependent_eqElN9__gnu_cxx5__ops15_Iter_comp_iterIZNS0_17solve_context_eqs25collect_nested_equalitiesER6vectorIS1_Lb1EjEE3$_0EEEvT_SC_T0_T1_.exit": ; preds = %while.body.i
  tail call fastcc void @"_ZSt16__insertion_sortIPN3euf12dependent_eqEN9__gnu_cxx5__ops15_Iter_comp_iterIZNS0_17solve_context_eqs25collect_nested_equalitiesER6vectorIS1_Lb1EjEE3$_0EEEvT_SC_T0_"(ptr noundef nonnull %add.ptr.i, ptr noundef %__last)
  %cmp45 = icmp sgt i64 %sub.ptr.sub, 280
  br i1 %cmp45, label %while.body.lr.ph, label %while.end

while.body.lr.ph:                                 ; preds = %"_ZSt22__chunk_insertion_sortIPN3euf12dependent_eqElN9__gnu_cxx5__ops15_Iter_comp_iterIZNS0_17solve_context_eqs25collect_nested_equalitiesER6vectorIS1_Lb1EjEE3$_0EEEvT_SC_T0_T1_.exit"
  %sub.ptr.lhs.cast.i23 = ptrtoint ptr %add.ptr to i64
  %sub.ptr.div21.i26 = udiv exact i64 %sub.ptr.sub, 40
  br label %while.body

while.body:                                       ; preds = %while.body.lr.ph, %"_ZSt17__merge_sort_loopIPN3euf12dependent_eqES2_lN9__gnu_cxx5__ops15_Iter_comp_iterIZNS0_17solve_context_eqs25collect_nested_equalitiesER6vectorIS1_Lb1EjEE3$_0EEEvT_SC_T0_T1_T2_.exit44"
  %__step_size.046 = phi i64 [ 7, %while.body.lr.ph ], [ %mul.i22, %"_ZSt17__merge_sort_loopIPN3euf12dependent_eqES2_lN9__gnu_cxx5__ops15_Iter_comp_iterIZNS0_17solve_context_eqs25collect_nested_equalitiesER6vectorIS1_Lb1EjEE3$_0EEEvT_SC_T0_T1_T2_.exit44" ]
  %mul.i = shl nsw i64 %__step_size.046, 1
  %cmp.not22.i = icmp slt i64 %sub.ptr.div, %mul.i
  br i1 %cmp.not22.i, label %"_ZSt17__merge_sort_loopIPN3euf12dependent_eqES2_lN9__gnu_cxx5__ops15_Iter_comp_iterIZNS0_17solve_context_eqs25collect_nested_equalitiesER6vectorIS1_Lb1EjEE3$_0EEEvT_SC_T0_T1_T2_.exit", label %while.body.i17

while.body.i17:                                   ; preds = %while.body, %while.body.i17
  %__first.addr.024.i = phi ptr [ %add.ptr2.i, %while.body.i17 ], [ %__first, %while.body ]
  %__result.addr.023.i = phi ptr [ %call.i, %while.body.i17 ], [ %__buffer, %while.body ]
  %add.ptr.i18 = getelementptr inbounds %"struct.euf::dependent_eq", ptr %__first.addr.024.i, i64 %__step_size.046
  %add.ptr2.i = getelementptr inbounds %"struct.euf::dependent_eq", ptr %__first.addr.024.i, i64 %mul.i
  %call.i = tail call fastcc noundef ptr @"_ZSt12__move_mergeIPN3euf12dependent_eqES2_N9__gnu_cxx5__ops15_Iter_comp_iterIZNS0_17solve_context_eqs25collect_nested_equalitiesER6vectorIS1_Lb1EjEE3$_0EEET0_T_SD_SD_SD_SC_T1_"(ptr noundef %__first.addr.024.i, ptr noundef nonnull %add.ptr.i18, ptr noundef nonnull %add.ptr.i18, ptr noundef nonnull %add.ptr2.i, ptr noundef %__result.addr.023.i)
  %sub.ptr.rhs.cast.i19 = ptrtoint ptr %add.ptr2.i to i64
  %sub.ptr.sub.i20 = sub i64 %sub.ptr.lhs.cast, %sub.ptr.rhs.cast.i19
  %sub.ptr.div.i = sdiv exact i64 %sub.ptr.sub.i20, 40
  %cmp.not.i = icmp slt i64 %sub.ptr.div.i, %mul.i
  br i1 %cmp.not.i, label %"_ZSt17__merge_sort_loopIPN3euf12dependent_eqES2_lN9__gnu_cxx5__ops15_Iter_comp_iterIZNS0_17solve_context_eqs25collect_nested_equalitiesER6vectorIS1_Lb1EjEE3$_0EEEvT_SC_T0_T1_T2_.exit", label %while.body.i17, !llvm.loop !40

"_ZSt17__merge_sort_loopIPN3euf12dependent_eqES2_lN9__gnu_cxx5__ops15_Iter_comp_iterIZNS0_17solve_context_eqs25collect_nested_equalitiesER6vectorIS1_Lb1EjEE3$_0EEEvT_SC_T0_T1_T2_.exit": ; preds = %while.body.i17, %while.body
  %__result.addr.0.lcssa.i = phi ptr [ %__buffer, %while.body ], [ %call.i, %while.body.i17 ]
  %__first.addr.0.lcssa.i21 = phi ptr [ %__first, %while.body ], [ %add.ptr2.i, %while.body.i17 ]
  %sub.ptr.div.lcssa.i = phi i64 [ %sub.ptr.div, %while.body ], [ %sub.ptr.div.i, %while.body.i17 ]
  %.sroa.speculated.i = tail call i64 @llvm.smin.i64(i64 %sub.ptr.div.lcssa.i, i64 %__step_size.046)
  %add.ptr9.i = getelementptr inbounds %"struct.euf::dependent_eq", ptr %__first.addr.0.lcssa.i21, i64 %.sroa.speculated.i
  %call12.i = tail call fastcc noundef ptr @"_ZSt12__move_mergeIPN3euf12dependent_eqES2_N9__gnu_cxx5__ops15_Iter_comp_iterIZNS0_17solve_context_eqs25collect_nested_equalitiesER6vectorIS1_Lb1EjEE3$_0EEET0_T_SD_SD_SD_SC_T1_"(ptr noundef %__first.addr.0.lcssa.i21, ptr noundef %add.ptr9.i, ptr noundef %add.ptr9.i, ptr noundef %__last, ptr noundef %__result.addr.0.lcssa.i)
  %mul.i22 = shl nsw i64 %__step_size.046, 2
  %cmp.not22.i27 = icmp slt i64 %sub.ptr.div21.i26, %mul.i22
  br i1 %cmp.not22.i27, label %"_ZSt17__merge_sort_loopIPN3euf12dependent_eqES2_lN9__gnu_cxx5__ops15_Iter_comp_iterIZNS0_17solve_context_eqs25collect_nested_equalitiesER6vectorIS1_Lb1EjEE3$_0EEEvT_SC_T0_T1_T2_.exit44", label %while.body.i28

while.body.i28:                                   ; preds = %"_ZSt17__merge_sort_loopIPN3euf12dependent_eqES2_lN9__gnu_cxx5__ops15_Iter_comp_iterIZNS0_17solve_context_eqs25collect_nested_equalitiesER6vectorIS1_Lb1EjEE3$_0EEEvT_SC_T0_T1_T2_.exit", %while.body.i28
  %__first.addr.024.i29 = phi ptr [ %add.ptr2.i32, %while.body.i28 ], [ %__buffer, %"_ZSt17__merge_sort_loopIPN3euf12dependent_eqES2_lN9__gnu_cxx5__ops15_Iter_comp_iterIZNS0_17solve_context_eqs25collect_nested_equalitiesER6vectorIS1_Lb1EjEE3$_0EEEvT_SC_T0_T1_T2_.exit" ]
  %__result.addr.023.i30 = phi ptr [ %call.i33, %while.body.i28 ], [ %__first, %"_ZSt17__merge_sort_loopIPN3euf12dependent_eqES2_lN9__gnu_cxx5__ops15_Iter_comp_iterIZNS0_17solve_context_eqs25collect_nested_equalitiesER6vectorIS1_Lb1EjEE3$_0EEEvT_SC_T0_T1_T2_.exit" ]
  %add.ptr.i31 = getelementptr inbounds %"struct.euf::dependent_eq", ptr %__first.addr.024.i29, i64 %mul.i
  %add.ptr2.i32 = getelementptr inbounds %"struct.euf::dependent_eq", ptr %__first.addr.024.i29, i64 %mul.i22
  %call.i33 = tail call fastcc noundef ptr @"_ZSt12__move_mergeIPN3euf12dependent_eqES2_N9__gnu_cxx5__ops15_Iter_comp_iterIZNS0_17solve_context_eqs25collect_nested_equalitiesER6vectorIS1_Lb1EjEE3$_0EEET0_T_SD_SD_SD_SC_T1_"(ptr noundef %__first.addr.024.i29, ptr noundef nonnull %add.ptr.i31, ptr noundef nonnull %add.ptr.i31, ptr noundef nonnull %add.ptr2.i32, ptr noundef %__result.addr.023.i30)
  %sub.ptr.rhs.cast.i34 = ptrtoint ptr %add.ptr2.i32 to i64
  %sub.ptr.sub.i35 = sub i64 %sub.ptr.lhs.cast.i23, %sub.ptr.rhs.cast.i34
  %sub.ptr.div.i36 = sdiv exact i64 %sub.ptr.sub.i35, 40
  %cmp.not.i37 = icmp slt i64 %sub.ptr.div.i36, %mul.i22
  br i1 %cmp.not.i37, label %"_ZSt17__merge_sort_loopIPN3euf12dependent_eqES2_lN9__gnu_cxx5__ops15_Iter_comp_iterIZNS0_17solve_context_eqs25collect_nested_equalitiesER6vectorIS1_Lb1EjEE3$_0EEEvT_SC_T0_T1_T2_.exit44", label %while.body.i28, !llvm.loop !40

"_ZSt17__merge_sort_loopIPN3euf12dependent_eqES2_lN9__gnu_cxx5__ops15_Iter_comp_iterIZNS0_17solve_context_eqs25collect_nested_equalitiesER6vectorIS1_Lb1EjEE3$_0EEEvT_SC_T0_T1_T2_.exit44": ; preds = %while.body.i28, %"_ZSt17__merge_sort_loopIPN3euf12dependent_eqES2_lN9__gnu_cxx5__ops15_Iter_comp_iterIZNS0_17solve_context_eqs25collect_nested_equalitiesER6vectorIS1_Lb1EjEE3$_0EEEvT_SC_T0_T1_T2_.exit"
  %__result.addr.0.lcssa.i38 = phi ptr [ %__first, %"_ZSt17__merge_sort_loopIPN3euf12dependent_eqES2_lN9__gnu_cxx5__ops15_Iter_comp_iterIZNS0_17solve_context_eqs25collect_nested_equalitiesER6vectorIS1_Lb1EjEE3$_0EEEvT_SC_T0_T1_T2_.exit" ], [ %call.i33, %while.body.i28 ]
  %__first.addr.0.lcssa.i39 = phi ptr [ %__buffer, %"_ZSt17__merge_sort_loopIPN3euf12dependent_eqES2_lN9__gnu_cxx5__ops15_Iter_comp_iterIZNS0_17solve_context_eqs25collect_nested_equalitiesER6vectorIS1_Lb1EjEE3$_0EEEvT_SC_T0_T1_T2_.exit" ], [ %add.ptr2.i32, %while.body.i28 ]
  %sub.ptr.div.lcssa.i40 = phi i64 [ %sub.ptr.div21.i26, %"_ZSt17__merge_sort_loopIPN3euf12dependent_eqES2_lN9__gnu_cxx5__ops15_Iter_comp_iterIZNS0_17solve_context_eqs25collect_nested_equalitiesER6vectorIS1_Lb1EjEE3$_0EEEvT_SC_T0_T1_T2_.exit" ], [ %sub.ptr.div.i36, %while.body.i28 ]
  %.sroa.speculated.i41 = tail call i64 @llvm.smin.i64(i64 %sub.ptr.div.lcssa.i40, i64 %mul.i)
  %add.ptr9.i42 = getelementptr inbounds %"struct.euf::dependent_eq", ptr %__first.addr.0.lcssa.i39, i64 %.sroa.speculated.i41
  %call12.i43 = tail call fastcc noundef ptr @"_ZSt12__move_mergeIPN3euf12dependent_eqES2_N9__gnu_cxx5__ops15_Iter_comp_iterIZNS0_17solve_context_eqs25collect_nested_equalitiesER6vectorIS1_Lb1EjEE3$_0EEET0_T_SD_SD_SD_SC_T1_"(ptr noundef %__first.addr.0.lcssa.i39, ptr noundef %add.ptr9.i42, ptr noundef %add.ptr9.i42, ptr noundef nonnull %add.ptr, ptr noundef %__result.addr.0.lcssa.i38)
  %cmp = icmp slt i64 %mul.i22, %sub.ptr.div
  br i1 %cmp, label %while.body, label %while.end, !llvm.loop !41

while.end:                                        ; preds = %"_ZSt17__merge_sort_loopIPN3euf12dependent_eqES2_lN9__gnu_cxx5__ops15_Iter_comp_iterIZNS0_17solve_context_eqs25collect_nested_equalitiesER6vectorIS1_Lb1EjEE3$_0EEEvT_SC_T0_T1_T2_.exit44", %"_ZSt22__chunk_insertion_sortIPN3euf12dependent_eqElN9__gnu_cxx5__ops15_Iter_comp_iterIZNS0_17solve_context_eqs25collect_nested_equalitiesER6vectorIS1_Lb1EjEE3$_0EEEvT_SC_T0_T1_.exit.thread", %"_ZSt22__chunk_insertion_sortIPN3euf12dependent_eqElN9__gnu_cxx5__ops15_Iter_comp_iterIZNS0_17solve_context_eqs25collect_nested_equalitiesER6vectorIS1_Lb1EjEE3$_0EEEvT_SC_T0_T1_.exit"
  ret void
}